target datalayout = "e-m:e-p270:32:32-p271:32:32-p272:64:64-i64:64-i128:128-f80:128-n8:16:32:64-S128"
target triple = "x86_64-pc-linux-gnu"

%struct._psqlSettings = type { ptr, i32, ptr, i8, ptr, ptr, %struct.printQueryOpt, ptr, ptr, ptr, i8, i8, i32, i32, ptr, ptr, i8, [4 x ptr], i8, i32, ptr, i8, i32, ptr, ptr, i64, i64, i8, ptr, ptr, ptr, i8, i8, i8, i8, i8, i8, i8, i32, i32, i32, i32, i32, i32, i32, i32, ptr, ptr, ptr, i32, i8, i32 }
%struct.printQueryOpt = type { %struct.printTableOpt, ptr, ptr, ptr, i8, ptr, i32 }
%struct.printTableOpt = type { i32, i16, i32, i32, i16, i16, i32, i8, i8, i8, i8, i64, ptr, %struct.separator, %struct.separator, [2 x i8], i8, ptr, i32, i32, i32, i32, i32, i32 }
%struct.separator = type { ptr, i8 }
%struct.PQExpBufferData = type { ptr, i64, i64 }

@pset = external global %struct._psqlSettings, align 8
@.str.213 = private unnamed_addr constant [4 x i8] c"AS \00", align 1
@.str.214 = private unnamed_addr constant [7 x i8] c"BEGIN \00", align 1
@.str.215 = private unnamed_addr constant [8 x i8] c"RETURN \00", align 1
@stdout = external global ptr, align 8
@.str.269 = private unnamed_addr constant [26 x i8] c"function name is required\00", align 1
@.str.270 = private unnamed_addr constant [22 x i8] c"view name is required\00", align 1
@.str.271 = private unnamed_addr constant [12 x i8] c"        %s\0A\00", align 1
@.str.272 = private unnamed_addr constant [9 x i8] c"%-7d %s\0A\00", align 1

; Function Attrs: nounwind uwtable
define internal void @ignore_slash_whole_line(ptr noundef %0) #0 {
  %2 = alloca ptr, align 8
  %3 = alloca ptr, align 8
  store ptr %0, ptr %2, align 8
  call void @llvm.lifetime.start.p0(i64 8, ptr %3) #10
  %4 = load ptr, ptr %2, align 8
  %5 = call ptr @psql_scan_slash_option(ptr noundef %4, i32 noundef 4, ptr noundef null, i1 noundef zeroext false)
  store ptr %5, ptr %3, align 8
  %6 = load ptr, ptr %3, align 8
  call void @free(ptr noundef %6) #10
  call void @llvm.lifetime.end.p0(i64 8, ptr %3) #10
  ret void
}

; Function Attrs: nounwind uwtable
define internal void @print_with_linenumbers(ptr noundef %0, ptr noundef %1, i1 noundef zeroext %2) #0 {
  %4 = alloca ptr, align 8
  %5 = alloca ptr, align 8
  %6 = alloca i8, align 1
  %7 = alloca i8, align 1
  %8 = alloca i32, align 4
  %9 = alloca ptr, align 8
  %10 = alloca i32, align 4
  store ptr %0, ptr %4, align 8
  store ptr %1, ptr %5, align 8
  %11 = zext i1 %2 to i8
  store i8 %11, ptr %6, align 1
  call void @llvm.lifetime.start.p0(i64 1, ptr %7) #10
  %12 = load i8, ptr %6, align 1, !range !4, !noundef !5
  %13 = trunc i8 %12 to i1
  %14 = zext i1 %13 to i8
  store i8 %14, ptr %7, align 1
  call void @llvm.lifetime.start.p0(i64 4, ptr %8) #10
  store i32 0, ptr %8, align 4
  br label %15

15:                                               ; preds = %70, %3
  %16 = load ptr, ptr %5, align 8
  %17 = load i8, ptr %16, align 1
  %18 = sext i8 %17 to i32
  %19 = icmp ne i32 %18, 0
  br i1 %19, label %20, label %71

20:                                               ; preds = %15
  call void @llvm.lifetime.start.p0(i64 8, ptr %9) #10
  %21 = load i8, ptr %7, align 1, !range !4, !noundef !5
  %22 = trunc i8 %21 to i1
  br i1 %22, label %23, label %36

23:                                               ; preds = %20
  %24 = load ptr, ptr %5, align 8
  %25 = call i32 @strncmp(ptr noundef %24, ptr noundef @.str.213, i64 noundef 3) #11
  %26 = icmp eq i32 %25, 0
  br i1 %26, label %35, label %27

27:                                               ; preds = %23
  %28 = load ptr, ptr %5, align 8
  %29 = call i32 @strncmp(ptr noundef %28, ptr noundef @.str.214, i64 noundef 6) #11
  %30 = icmp eq i32 %29, 0
  br i1 %30, label %35, label %31

31:                                               ; preds = %27
  %32 = load ptr, ptr %5, align 8
  %33 = call i32 @strncmp(ptr noundef %32, ptr noundef @.str.215, i64 noundef 7) #11
  %34 = icmp eq i32 %33, 0
  br i1 %34, label %35, label %36

35:                                               ; preds = %31, %27, %23
  store i8 0, ptr %7, align 1
  br label %36

36:                                               ; preds = %35, %31, %20
  %37 = load i8, ptr %7, align 1, !range !4, !noundef !5
  %38 = trunc i8 %37 to i1
  br i1 %38, label %42, label %39

39:                                               ; preds = %36
  %40 = load i32, ptr %8, align 4
  %41 = add i32 %40, 1
  store i32 %41, ptr %8, align 4
  br label %42

42:                                               ; preds = %39, %36
  %43 = load ptr, ptr %5, align 8
  %44 = call ptr @strchr(ptr noundef %43, i32 noundef 10) #11
  store ptr %44, ptr %9, align 8
  %45 = load ptr, ptr %9, align 8
  %46 = icmp ne ptr %45, null
  br i1 %46, label %47, label %49

47:                                               ; preds = %42
  %48 = load ptr, ptr %9, align 8
  store i8 0, ptr %48, align 1
  br label %49

49:                                               ; preds = %47, %42
  %50 = load i8, ptr %7, align 1, !range !4, !noundef !5
  %51 = trunc i8 %50 to i1
  br i1 %51, label %52, label %56

52:                                               ; preds = %49
  %53 = load ptr, ptr %4, align 8
  %54 = load ptr, ptr %5, align 8
  %55 = call i32 (ptr, ptr, ...) @pg_fprintf(ptr noundef %53, ptr noundef @.str.271, ptr noundef %54)
  br label %61

56:                                               ; preds = %49
  %57 = load ptr, ptr %4, align 8
  %58 = load i32, ptr %8, align 4
  %59 = load ptr, ptr %5, align 8
  %60 = call i32 (ptr, ptr, ...) @pg_fprintf(ptr noundef %57, ptr noundef @.str.272, i32 noundef %58, ptr noundef %59)
  br label %61

61:                                               ; preds = %56, %52
  %62 = load ptr, ptr %9, align 8
  %63 = icmp eq ptr %62, null
  br i1 %63, label %64, label %65

64:                                               ; preds = %61
  store i32 3, ptr %10, align 4
  br label %68

65:                                               ; preds = %61
  %66 = load ptr, ptr %9, align 8
  %67 = getelementptr inbounds nuw i8, ptr %66, i32 1
  store ptr %67, ptr %9, align 8
  store ptr %67, ptr %5, align 8
  store i32 0, ptr %10, align 4
  br label %68

68:                                               ; preds = %65, %64
  call void @llvm.lifetime.end.p0(i64 8, ptr %9) #10
  %69 = load i32, ptr %10, align 4
  switch i32 %69, label %72 [
    i32 0, label %70
    i32 3, label %71
  ]

70:                                               ; preds = %68
  br label %15, !llvm.loop !32

71:                                               ; preds = %68, %15
  call void @llvm.lifetime.end.p0(i64 4, ptr %8) #10
  call void @llvm.lifetime.end.p0(i64 1, ptr %7) #10
  ret void

72:                                               ; preds = %68
  unreachable
}

; Function Attrs: nounwind uwtable
define internal i32 @count_lines_in_buf(ptr noundef %0) #0 {
  %2 = alloca ptr, align 8
  %3 = alloca i32, align 4
  %4 = alloca ptr, align 8
  store ptr %0, ptr %2, align 8
  call void @llvm.lifetime.start.p0(i64 4, ptr %3) #10
  store i32 0, ptr %3, align 4
  call void @llvm.lifetime.start.p0(i64 8, ptr %4) #10
  %5 = load ptr, ptr %2, align 8
  %6 = getelementptr inbounds nuw %struct.PQExpBufferData, ptr %5, i32 0, i32 0
  %7 = load ptr, ptr %6, align 8
  store ptr %7, ptr %4, align 8
  br label %8

8:                                                ; preds = %21, %1
  %9 = load ptr, ptr %4, align 8
  %10 = load i8, ptr %9, align 1
  %11 = sext i8 %10 to i32
  %12 = icmp ne i32 %11, 0
  br i1 %12, label %13, label %24

13:                                               ; preds = %8
  %14 = load i32, ptr %3, align 4
  %15 = add i32 %14, 1
  store i32 %15, ptr %3, align 4
  %16 = load ptr, ptr %4, align 8
  %17 = call ptr @strchr(ptr noundef %16, i32 noundef 10) #11
  store ptr %17, ptr %4, align 8
  %18 = load ptr, ptr %4, align 8
  %19 = icmp ne ptr %18, null
  br i1 %19, label %21, label %20

20:                                               ; preds = %13
  br label %24

21:                                               ; preds = %13
  %22 = load ptr, ptr %4, align 8
  %23 = getelementptr inbounds nuw i8, ptr %22, i32 1
  store ptr %23, ptr %4, align 8
  br label %8, !llvm.loop !31

24:                                               ; preds = %20, %8
  %25 = load i32, ptr %3, align 4
  call void @llvm.lifetime.end.p0(i64 8, ptr %4) #10
  call void @llvm.lifetime.end.p0(i64 4, ptr %3) #10
  ret i32 %25
}

; Function Attrs: nounwind uwtable
define internal i32 @exec_command_sf_sv(ptr noundef %0, i1 noundef zeroext %1, ptr noundef %2, i1 noundef zeroext %3) #0 {
  %5 = alloca ptr, align 8
  %6 = alloca i8, align 1
  %7 = alloca ptr, align 8
  %8 = alloca i8, align 1
  %9 = alloca i32, align 4
  %10 = alloca i8, align 1
  %11 = alloca ptr, align 8
  %12 = alloca ptr, align 8
  %13 = alloca i32, align 4
  %14 = alloca i32, align 4
  %15 = alloca ptr, align 8
  %16 = alloca i8, align 1
  %17 = alloca i32, align 4
  store ptr %0, ptr %5, align 8
  %18 = zext i1 %1 to i8
  store i8 %18, ptr %6, align 1
  store ptr %2, ptr %7, align 8
  %19 = zext i1 %3 to i8
  store i8 %19, ptr %8, align 1
  call void @llvm.lifetime.start.p0(i64 4, ptr %9) #10
  store i32 2, ptr %9, align 4
  %20 = load i8, ptr %6, align 1, !range !4, !noundef !5
  %21 = trunc i8 %20 to i1
  br i1 %21, label %22, label %90

22:                                               ; preds = %4
  call void @llvm.lifetime.start.p0(i64 1, ptr %10) #10
  %23 = load ptr, ptr %7, align 8
  %24 = call ptr @strchr(ptr noundef %23, i32 noundef 43) #11
  %25 = icmp ne ptr %24, null
  %26 = zext i1 %25 to i8
  store i8 %26, ptr %10, align 1
  call void @llvm.lifetime.start.p0(i64 8, ptr %11) #10
  call void @llvm.lifetime.start.p0(i64 8, ptr %12) #10
  call void @llvm.lifetime.start.p0(i64 4, ptr %13) #10
  store i32 0, ptr %13, align 4
  call void @llvm.lifetime.start.p0(i64 4, ptr %14) #10
  %27 = load i8, ptr %8, align 1, !range !4, !noundef !5
  %28 = trunc i8 %27 to i1
  %29 = select i1 %28, i32 0, i32 1
  store i32 %29, ptr %14, align 4
  %30 = call ptr @createPQExpBuffer()
  store ptr %30, ptr %11, align 8
  %31 = load ptr, ptr %5, align 8
  %32 = call ptr @psql_scan_slash_option(ptr noundef %31, i32 noundef 4, ptr noundef null, i1 noundef zeroext true)
  store ptr %32, ptr %12, align 8
  %33 = load ptr, ptr %12, align 8
  %34 = icmp ne ptr %33, null
  br i1 %34, label %41, label %35

35:                                               ; preds = %22
  %36 = load i8, ptr %8, align 1, !range !4, !noundef !5
  %37 = trunc i8 %36 to i1
  br i1 %37, label %38, label %39

38:                                               ; preds = %35
  call void (i32, i32, ptr, ...) @pg_log_generic(i32 noundef 4, i32 noundef 0, ptr noundef @.str.269)
  br label %40

39:                                               ; preds = %35
  call void (i32, i32, ptr, ...) @pg_log_generic(i32 noundef 4, i32 noundef 0, ptr noundef @.str.270)
  br label %40

40:                                               ; preds = %39, %38
  store i32 5, ptr %9, align 4
  br label %87

41:                                               ; preds = %22
  %42 = load i32, ptr %14, align 4
  %43 = load ptr, ptr %12, align 8
  %44 = call zeroext i1 @lookup_object_oid(i32 noundef %42, ptr noundef %43, ptr noundef %13)
  br i1 %44, label %46, label %45

45:                                               ; preds = %41
  store i32 5, ptr %9, align 4
  br label %86

46:                                               ; preds = %41
  %47 = load i32, ptr %14, align 4
  %48 = load i32, ptr %13, align 4
  %49 = load ptr, ptr %11, align 8
  %50 = call zeroext i1 @get_create_object_cmd(i32 noundef %47, i32 noundef %48, ptr noundef %49)
  br i1 %50, label %52, label %51

51:                                               ; preds = %46
  store i32 5, ptr %9, align 4
  br label %85

52:                                               ; preds = %46
  call void @llvm.lifetime.start.p0(i64 8, ptr %15) #10
  call void @llvm.lifetime.start.p0(i64 1, ptr %16) #10
  %53 = load ptr, ptr getelementptr inbounds nuw (%struct._psqlSettings, ptr @pset, i32 0, i32 2), align 8
  %54 = load ptr, ptr @stdout, align 8
  %55 = icmp eq ptr %53, %54
  br i1 %55, label %56, label %61

56:                                               ; preds = %52
  call void @llvm.lifetime.start.p0(i64 4, ptr %17) #10
  %57 = load ptr, ptr %11, align 8
  %58 = call i32 @count_lines_in_buf(ptr noundef %57)
  store i32 %58, ptr %17, align 4
  %59 = load i32, ptr %17, align 4
  %60 = call ptr @PageOutput(i32 noundef %59, ptr noundef getelementptr inbounds nuw (%struct._psqlSettings, ptr @pset, i32 0, i32 6))
  store ptr %60, ptr %15, align 8
  store i8 1, ptr %16, align 1
  call void @llvm.lifetime.end.p0(i64 4, ptr %17) #10
  br label %63

61:                                               ; preds = %52
  %62 = load ptr, ptr getelementptr inbounds nuw (%struct._psqlSettings, ptr @pset, i32 0, i32 2), align 8
  store ptr %62, ptr %15, align 8
  store i8 0, ptr %16, align 1
  br label %63

63:                                               ; preds = %61, %56
  %64 = load i8, ptr %10, align 1, !range !4, !noundef !5
  %65 = trunc i8 %64 to i1
  br i1 %65, label %66, label %73

66:                                               ; preds = %63
  %67 = load ptr, ptr %15, align 8
  %68 = load ptr, ptr %11, align 8
  %69 = getelementptr inbounds nuw %struct.PQExpBufferData, ptr %68, i32 0, i32 0
  %70 = load ptr, ptr %69, align 8
  %71 = load i8, ptr %8, align 1, !range !4, !noundef !5
  %72 = trunc i8 %71 to i1
  call void @print_with_linenumbers(ptr noundef %67, ptr noundef %70, i1 noundef zeroext %72)
  br label %79

73:                                               ; preds = %63
  %74 = load ptr, ptr %11, align 8
  %75 = getelementptr inbounds nuw %struct.PQExpBufferData, ptr %74, i32 0, i32 0
  %76 = load ptr, ptr %75, align 8
  %77 = load ptr, ptr %15, align 8
  %78 = call i32 @fputs(ptr noundef %76, ptr noundef %77)
  br label %79

79:                                               ; preds = %73, %66
  %80 = load i8, ptr %16, align 1, !range !4, !noundef !5
  %81 = trunc i8 %80 to i1
  br i1 %81, label %82, label %84

82:                                               ; preds = %79
  %83 = load ptr, ptr %15, align 8
  call void @ClosePager(ptr noundef %83)
  br label %84

84:                                               ; preds = %82, %79
  call void @llvm.lifetime.end.p0(i64 1, ptr %16) #10
  call void @llvm.lifetime.end.p0(i64 8, ptr %15) #10
  br label %85

85:                                               ; preds = %84, %51
  br label %86

86:                                               ; preds = %85, %45
  br label %87

87:                                               ; preds = %86, %40
  %88 = load ptr, ptr %12, align 8
  call void @free(ptr noundef %88) #10
  %89 = load ptr, ptr %11, align 8
  call void @destroyPQExpBuffer(ptr noundef %89)
  call void @llvm.lifetime.end.p0(i64 4, ptr %14) #10
  call void @llvm.lifetime.end.p0(i64 4, ptr %13) #10
  call void @llvm.lifetime.end.p0(i64 8, ptr %12) #10
  call void @llvm.lifetime.end.p0(i64 8, ptr %11) #10
  call void @llvm.lifetime.end.p0(i64 1, ptr %10) #10
  br label %92

90:                                               ; preds = %4
  %91 = load ptr, ptr %5, align 8
  call void @ignore_slash_whole_line(ptr noundef %91)
  br label %92

92:                                               ; preds = %90, %87
  %93 = load i32, ptr %9, align 4
  call void @llvm.lifetime.end.p0(i64 4, ptr %9) #10
  ret i32 %93
}