; Function Attrs: nounwind uwtable
define internal fastcc range(i32 2, 6) i32 @exec_command_sf_sv(ptr noundef %0, i1 noundef zeroext %1, ptr noundef readonly %2, i1 noundef zeroext %3) unnamed_addr #0 {
  %5 = alloca i32, align 4
  br i1 %1, label %6, label %66

6:                                                ; preds = %4
  %7 = tail call ptr @strchr(ptr noundef nonnull dereferenceable(1) %2, i32 noundef 43) #17
  %.not = icmp eq ptr %7, null
  call void @llvm.lifetime.start.p0(i64 4, ptr nonnull %5) #16
  store i32 0, ptr %5, align 4
  %not. = xor i1 %3, true
  %8 = zext i1 %not. to i32
  %9 = tail call ptr @createPQExpBuffer() #16
  %10 = tail call ptr @psql_scan_slash_option(ptr noundef %0, i32 noundef 4, ptr noundef null, i1 noundef zeroext true) #16
  %.not27 = icmp eq ptr %10, null
  br i1 %.not27, label %11, label %14

11:                                               ; preds = %6
  br i1 %3, label %12, label %13

12:                                               ; preds = %11
  tail call void (i32, i32, ptr, ...) @pg_log_generic(i32 noundef 4, i32 noundef 0, ptr noundef nonnull @.str.269) #16
  br label %65

13:                                               ; preds = %11
  tail call void (i32, i32, ptr, ...) @pg_log_generic(i32 noundef 4, i32 noundef 0, ptr noundef nonnull @.str.270) #16
  br label %65

14:                                               ; preds = %6
  %15 = call fastcc zeroext i1 @lookup_object_oid(i32 noundef %8, ptr noundef %10, ptr noundef %5)
  br i1 %15, label %16, label %65

16:                                               ; preds = %14
  %17 = load i32, ptr %5, align 4
  %18 = tail call fastcc zeroext i1 @get_create_object_cmd(i32 noundef %8, i32 noundef %17, ptr noundef %9)
  br i1 %18, label %19, label %65

19:                                               ; preds = %16
  %20 = load ptr, ptr getelementptr inbounds nuw (i8, ptr @pset, i64 16), align 8
  %21 = load ptr, ptr @stdout, align 8
  %22 = icmp eq ptr %20, %21
  br i1 %22, label %23, label %31

23:                                               ; preds = %19
  %.val = load ptr, ptr %9, align 8
  %24 = load i8, ptr %.val, align 1
  %.not1.i = icmp eq i8 %24, 0
  br i1 %.not1.i, label %count_lines_in_buf.exit, label %.lr.ph.i

25:                                               ; preds = %.lr.ph.i
  %26 = getelementptr inbounds nuw i8, ptr %29, i64 1
  %27 = load i8, ptr %26, align 1
  %.not.i = icmp eq i8 %27, 0
  br i1 %.not.i, label %count_lines_in_buf.exit, label %.lr.ph.i, !llvm.loop !25

.lr.ph.i:                                         ; preds = %23, %25
  %.03.i = phi ptr [ %26, %25 ], [ %.val, %23 ]
  %.062.i = phi i32 [ %28, %25 ], [ 0, %23 ]
  %28 = add i32 %.062.i, 1
  %29 = tail call ptr @strchr(ptr noundef nonnull dereferenceable(1) %.03.i, i32 noundef 10) #17
  %.not8.i = icmp eq ptr %29, null
  br i1 %.not8.i, label %count_lines_in_buf.exit, label %25

count_lines_in_buf.exit:                          ; preds = %25, %.lr.ph.i, %23
  %.1.i = phi i32 [ 0, %23 ], [ %28, %.lr.ph.i ], [ %28, %25 ]
  %30 = tail call ptr @PageOutput(i32 noundef %.1.i, ptr noundef nonnull getelementptr inbounds nuw (i8, ptr @pset, i64 48)) #16
  br label %31

31:                                               ; preds = %19, %count_lines_in_buf.exit
  %.024 = phi ptr [ %30, %count_lines_in_buf.exit ], [ %20, %19 ]
  %32 = load ptr, ptr %9, align 8
  br i1 %.not, label %62, label %33

33:                                               ; preds = %31
  %34 = zext i1 %3 to i8
  br label %35

35:                                               ; preds = %60, %33
  %.022.i = phi ptr [ %32, %33 ], [ %61, %60 ]
  %.020.i = phi i8 [ %34, %33 ], [ %.121.i, %60 ]
  %.019.i = phi i32 [ 0, %33 ], [ %spec.select.i, %60 ]
  %36 = load i8, ptr %.022.i, align 1
  %.not.i28 = icmp eq i8 %36, 0
  br i1 %.not.i28, label %print_with_linenumbers.exit, label %37

37:                                               ; preds = %35
  %38 = trunc nuw i8 %.020.i to i1
  br i1 %38, label %sub_0.i, label %50

sub_0.i:                                          ; preds = %37
  %.not27.i = icmp eq i8 %36, 65
  br i1 %.not27.i, label %sub_1.i, label %.tail.thread.i

sub_1.i:                                          ; preds = %sub_0.i
  %39 = getelementptr inbounds nuw i8, ptr %.022.i, i64 1
  %40 = load i8, ptr %39, align 1
  %.not28.i = icmp eq i8 %40, 83
  br i1 %.not28.i, label %.tail.i, label %.tail.thread.i

.tail.i:                                          ; preds = %sub_1.i
  %41 = getelementptr inbounds nuw i8, ptr %.022.i, i64 2
  %42 = load i8, ptr %41, align 1
  %43 = icmp eq i8 %42, 32
  br i1 %43, label %49, label %.tail.thread.i

.tail.thread.i:                                   ; preds = %.tail.i, %sub_1.i, %sub_0.i
  %44 = tail call i32 @strncmp(ptr noundef nonnull dereferenceable(1) %.022.i, ptr noundef nonnull dereferenceable(7) @.str.214, i64 noundef 6) #17
  %45 = icmp eq i32 %44, 0
  br i1 %45, label %49, label %46

46:                                               ; preds = %.tail.thread.i
  %47 = tail call i32 @strncmp(ptr noundef nonnull dereferenceable(1) %.022.i, ptr noundef nonnull dereferenceable(8) @.str.215, i64 noundef 7) #17
  %48 = icmp eq i32 %47, 0
  br i1 %48, label %49, label %50

49:                                               ; preds = %46, %.tail.thread.i, %.tail.i
  br label %50

50:                                               ; preds = %49, %46, %37
  %.121.i = phi i8 [ 0, %49 ], [ 1, %46 ], [ 0, %37 ]
  %51 = trunc nuw i8 %.121.i to i1
  %52 = add i32 %.019.i, 1
  %spec.select.i = select i1 %51, i32 %.019.i, i32 %52
  %53 = tail call ptr @strchr(ptr noundef nonnull dereferenceable(1) %.022.i, i32 noundef 10) #17
  %.not26.i = icmp eq ptr %53, null
  br i1 %.not26.i, label %55, label %54

54:                                               ; preds = %50
  store i8 0, ptr %53, align 1
  br label %55

55:                                               ; preds = %54, %50
  br i1 %51, label %56, label %58

56:                                               ; preds = %55
  %57 = tail call i32 (ptr, ptr, ...) @pg_fprintf(ptr noundef %.024, ptr noundef nonnull @.str.271, ptr noundef nonnull %.022.i) #16
  br label %60

58:                                               ; preds = %55
  %59 = tail call i32 (ptr, ptr, ...) @pg_fprintf(ptr noundef %.024, ptr noundef nonnull @.str.272, i32 noundef %52, ptr noundef nonnull %.022.i) #16
  br label %60

60:                                               ; preds = %58, %56
  %61 = getelementptr inbounds nuw i8, ptr %53, i64 1
  br i1 %.not26.i, label %print_with_linenumbers.exit, label %35

62:                                               ; preds = %31
  %63 = tail call i32 @fputs(ptr noundef %32, ptr noundef %.024)
  br label %print_with_linenumbers.exit

print_with_linenumbers.exit:                      ; preds = %60, %35, %62
  br i1 %22, label %64, label %65

64:                                               ; preds = %print_with_linenumbers.exit
  tail call void @ClosePager(ptr noundef %.024) #16
  br label %65

65:                                               ; preds = %print_with_linenumbers.exit, %64, %16, %14, %12, %13
  %.0 = phi i32 [ 5, %13 ], [ 5, %12 ], [ 5, %14 ], [ 5, %16 ], [ 2, %64 ], [ 2, %print_with_linenumbers.exit ]
  tail call void @free(ptr noundef %10) #16
  tail call void @destroyPQExpBuffer(ptr noundef %9) #16
  call void @llvm.lifetime.end.p0(i64 4, ptr nonnull %5) #16
  br label %68

66:                                               ; preds = %4
  %67 = tail call ptr @psql_scan_slash_option(ptr noundef %0, i32 noundef 4, ptr noundef null, i1 noundef zeroext false) #16
  tail call void @free(ptr noundef %67) #16
  br label %68

68:                                               ; preds = %66, %65
  %.1 = phi i32 [ %.0, %65 ], [ 2, %66 ]
  ret i32 %.1
}